; Function Attrs: mustprogress nounwind uwtable
define dso_local void @_ZNK4llvm12ScopeMatcher9printImplERNS_11raw_ostreamEj(ptr noundef nonnull align 8 dereferenceable(80) %0, ptr noundef nonnull align 8 dereferenceable(48) %1, i32 noundef %2) unnamed_addr #1 align 2 {
  %4 = tail call noundef nonnull align 8 dereferenceable(48) ptr @_ZN4llvm11raw_ostream6indentEj(ptr noundef nonnull align 8 dereferenceable(48) %1, i32 noundef %2) #13
  %5 = getelementptr inbounds nuw i8, ptr %4, i64 24
  %6 = load ptr, ptr %5, align 8
  %7 = getelementptr inbounds nuw i8, ptr %4, i64 32
  %8 = load ptr, ptr %7, align 8
  %9 = ptrtoint ptr %6 to i64
  %10 = ptrtoint ptr %8 to i64
  %11 = sub i64 %9, %10
  %12 = icmp ult i64 %11, 6
  br i1 %12, label %13, label %15

13:                                               ; preds = %3
  %14 = tail call noundef nonnull align 8 dereferenceable(48) ptr @_ZN4llvm11raw_ostream5writeEPKcm(ptr noundef nonnull align 8 dereferenceable(48) %4, ptr noundef nonnull @.str, i64 noundef 6) #13
  br label %_ZN4llvm11raw_ostreamlsEPKc.exit

15:                                               ; preds = %3
  tail call void @llvm.memcpy.p0.p0.i64(ptr noundef nonnull align 1 dereferenceable(6) %8, ptr noundef nonnull align 1 dereferenceable(6) @.str, i64 6, i1 false)
  %16 = load ptr, ptr %7, align 8
  %17 = getelementptr inbounds i8, ptr %16, i64 6
  store ptr %17, ptr %7, align 8
  br label %_ZN4llvm11raw_ostreamlsEPKc.exit

_ZN4llvm11raw_ostreamlsEPKc.exit:                 ; preds = %13, %15
  %18 = getelementptr inbounds nuw i8, ptr %0, i64 32
  %19 = load ptr, ptr %18, align 8
  %20 = tail call noundef i64 @_ZNK4llvm15SmallVectorBaseIjE4sizeEv(ptr noundef nonnull align 8 dereferenceable(16) %18) #13
  %21 = getelementptr inbounds ptr, ptr %19, i64 %20
  %.not19 = icmp eq i64 %20, 0
  br i1 %.not19, label %._crit_edge, label %.lr.ph

.lr.ph:                                           ; preds = %_ZN4llvm11raw_ostreamlsEPKc.exit
  %22 = add i32 %2, 2
  %23 = add i32 %2, 1
  br label %24

24:                                               ; preds = %.lr.ph, %_ZN4llvm11raw_ostreamlsEPKc.exit18
  %.020 = phi ptr [ %19, %.lr.ph ], [ %46, %_ZN4llvm11raw_ostreamlsEPKc.exit18 ]
  %25 = load ptr, ptr %.020, align 8
  %.not15 = icmp eq ptr %25, null
  br i1 %.not15, label %26, label %tailrecurse.i

26:                                               ; preds = %24
  %27 = tail call noundef nonnull align 8 dereferenceable(48) ptr @_ZN4llvm11raw_ostream6indentEj(ptr noundef nonnull align 8 dereferenceable(48) %1, i32 noundef %23) #13
  %28 = getelementptr inbounds nuw i8, ptr %27, i64 24
  %29 = load ptr, ptr %28, align 8
  %30 = getelementptr inbounds nuw i8, ptr %27, i64 32
  %31 = load ptr, ptr %30, align 8
  %32 = ptrtoint ptr %29 to i64
  %33 = ptrtoint ptr %31 to i64
  %34 = sub i64 %32, %33
  %35 = icmp ult i64 %34, 13
  br i1 %35, label %36, label %38

36:                                               ; preds = %26
  %37 = tail call noundef nonnull align 8 dereferenceable(48) ptr @_ZN4llvm11raw_ostream5writeEPKcm(ptr noundef nonnull align 8 dereferenceable(48) %27, ptr noundef nonnull @.str.1, i64 noundef 13) #13
  br label %_ZN4llvm11raw_ostreamlsEPKc.exit18

38:                                               ; preds = %26
  tail call void @llvm.memcpy.p0.p0.i64(ptr noundef nonnull align 1 dereferenceable(13) %31, ptr noundef nonnull align 1 dereferenceable(13) @.str.1, i64 13, i1 false)
  %39 = load ptr, ptr %30, align 8
  %40 = getelementptr inbounds i8, ptr %39, i64 13
  store ptr %40, ptr %30, align 8
  br label %_ZN4llvm11raw_ostreamlsEPKc.exit18

tailrecurse.i:                                    ; preds = %24, %tailrecurse.i
  %.tr.i = phi ptr [ %45, %tailrecurse.i ], [ %25, %24 ]
  %41 = load ptr, ptr %.tr.i, align 8
  %42 = getelementptr inbounds i8, ptr %41, i64 24
  %43 = load ptr, ptr %42, align 8
  tail call void %43(ptr noundef nonnull align 8 dereferenceable(28) %.tr.i, ptr noundef nonnull align 8 dereferenceable(48) %1, i32 noundef %22) #13
  %44 = getelementptr inbounds nuw i8, ptr %.tr.i, i64 8
  %45 = load ptr, ptr %44, align 8
  %.not.i = icmp eq ptr %45, null
  br i1 %.not.i, label %_ZN4llvm11raw_ostreamlsEPKc.exit18, label %tailrecurse.i

_ZN4llvm11raw_ostreamlsEPKc.exit18:               ; preds = %tailrecurse.i, %38, %36
  %46 = getelementptr inbounds i8, ptr %.020, i64 8
  %.not = icmp eq ptr %46, %21
  br i1 %.not, label %._crit_edge, label %24

._crit_edge:                                      ; preds = %_ZN4llvm11raw_ostreamlsEPKc.exit18, %_ZN4llvm11raw_ostreamlsEPKc.exit
  ret void
}